; Function Attrs: mustprogress ssp uwtable
define noundef i64 @_ZNK6open3d4core9TensorKey8GetIndexEv(ptr noundef nonnull readonly align 8 captures(none) dereferenceable(16) %0) local_unnamed_addr #2 align 2 personality ptr @__gxx_personality_v0 {
  %2 = alloca %"class.std::shared_ptr.0", align 8
  call void @llvm.lifetime.start.p0(i64 16, ptr nonnull %2) #21
  tail call void @llvm.experimental.noalias.scope.decl(metadata !94)
  %3 = load ptr, ptr %0, align 8, !tbaa !4, !noalias !94
  %4 = icmp eq ptr %3, null
  br i1 %4, label %_ZSt20dynamic_pointer_castIN6open3d4core9TensorKey9IndexImplENS2_4ImplEESt10shared_ptrIT_ERKS5_IT0_E.exit.thread4, label %5

5:                                                ; preds = %1
  %6 = tail call ptr @__dynamic_cast(ptr nonnull %3, ptr nonnull @_ZTIN6open3d4core9TensorKey4ImplE, ptr nonnull @_ZTIN6open3d4core9TensorKey9IndexImplE, i64 0) #21, !noalias !94
  %.not.not.i = icmp eq ptr %6, null
  br i1 %.not.not.i, label %_ZSt20dynamic_pointer_castIN6open3d4core9TensorKey9IndexImplENS2_4ImplEESt10shared_ptrIT_ERKS5_IT0_E.exit.thread4, label %7

7:                                                ; preds = %5
  store ptr %6, ptr %2, align 8, !tbaa !30, !alias.scope !94
  %8 = getelementptr inbounds nuw i8, ptr %2, i64 8
  %9 = getelementptr inbounds nuw i8, ptr %0, i64 8
  %10 = load ptr, ptr %9, align 8, !tbaa !12, !noalias !94
  store ptr %10, ptr %8, align 8, !tbaa !12, !alias.scope !94
  %.not.i.i.i.i = icmp eq ptr %10, null
  br i1 %.not.i.i.i.i, label %_ZSt20dynamic_pointer_castIN6open3d4core9TensorKey9IndexImplENS2_4ImplEESt10shared_ptrIT_ERKS5_IT0_E.exit.thread, label %11

11:                                               ; preds = %7
  %12 = getelementptr inbounds nuw i8, ptr %10, i64 8
  %13 = load i8, ptr @__libc_single_threaded, align 1, !tbaa !13, !noalias !94
  %.not.i.i.i.i.i = icmp eq i8 %13, 0
  br i1 %.not.i.i.i.i.i, label %_ZSt20dynamic_pointer_castIN6open3d4core9TensorKey9IndexImplENS2_4ImplEESt10shared_ptrIT_ERKS5_IT0_E.exit, label %14

14:                                               ; preds = %11
  %15 = load i32, ptr %12, align 4, !tbaa !14, !noalias !94
  %16 = add nsw i32 %15, 1
  store i32 %16, ptr %12, align 4, !tbaa !14, !noalias !94
  br label %_ZSt20dynamic_pointer_castIN6open3d4core9TensorKey9IndexImplENS2_4ImplEESt10shared_ptrIT_ERKS5_IT0_E.exit.thread

_ZSt20dynamic_pointer_castIN6open3d4core9TensorKey9IndexImplENS2_4ImplEESt10shared_ptrIT_ERKS5_IT0_E.exit.thread4: ; preds = %1, %5
  call void @llvm.memset.p0.i64(ptr noundef nonnull align 8 dereferenceable(16) %2, i8 0, i64 16, i1 false), !alias.scope !94
  br label %46

_ZSt20dynamic_pointer_castIN6open3d4core9TensorKey9IndexImplENS2_4ImplEESt10shared_ptrIT_ERKS5_IT0_E.exit: ; preds = %11
  %17 = atomicrmw volatile add ptr %12, i32 1 acq_rel, align 4, !noalias !94
  %.pr.pre = load ptr, ptr %2, align 8, !tbaa !30
  %.not = icmp eq ptr %.pr.pre, null
  br i1 %.not, label %46, label %_ZSt20dynamic_pointer_castIN6open3d4core9TensorKey9IndexImplENS2_4ImplEESt10shared_ptrIT_ERKS5_IT0_E.exit.thread

_ZSt20dynamic_pointer_castIN6open3d4core9TensorKey9IndexImplENS2_4ImplEESt10shared_ptrIT_ERKS5_IT0_E.exit.thread: ; preds = %7, %14, %_ZSt20dynamic_pointer_castIN6open3d4core9TensorKey9IndexImplENS2_4ImplEESt10shared_ptrIT_ERKS5_IT0_E.exit
  %18 = phi ptr [ %.pr.pre, %_ZSt20dynamic_pointer_castIN6open3d4core9TensorKey9IndexImplENS2_4ImplEESt10shared_ptrIT_ERKS5_IT0_E.exit ], [ %6, %14 ], [ %6, %7 ]
  %19 = getelementptr inbounds nuw i8, ptr %18, i64 16
  %20 = load i64, ptr %19, align 8, !tbaa !27
  %21 = getelementptr inbounds nuw i8, ptr %2, i64 8
  %22 = load ptr, ptr %21, align 8, !tbaa !12
  %.not.i.i = icmp eq ptr %22, null
  br i1 %.not.i.i, label %_ZNSt12__shared_ptrIN6open3d4core9TensorKey9IndexImplELN9__gnu_cxx12_Lock_policyE2EED2Ev.exit, label %23

23:                                               ; preds = %_ZSt20dynamic_pointer_castIN6open3d4core9TensorKey9IndexImplENS2_4ImplEESt10shared_ptrIT_ERKS5_IT0_E.exit.thread
  %24 = getelementptr inbounds nuw i8, ptr %22, i64 8
  %25 = load atomic i64, ptr %24 acquire, align 8
  %26 = icmp eq i64 %25, 4294967297
  %27 = trunc i64 %25 to i32
  br i1 %26, label %28, label %36

28:                                               ; preds = %23
  store i32 0, ptr %24, align 8, !tbaa !24
  %29 = getelementptr inbounds nuw i8, ptr %22, i64 12
  store i32 0, ptr %29, align 4, !tbaa !26
  %30 = load ptr, ptr %22, align 8, !tbaa !19
  %31 = getelementptr inbounds nuw i8, ptr %30, i64 16
  %32 = load ptr, ptr %31, align 8
  tail call void %32(ptr noundef nonnull align 8 dereferenceable(16) %22) #21
  %33 = load ptr, ptr %22, align 8, !tbaa !19
  %34 = getelementptr inbounds nuw i8, ptr %33, i64 24
  %35 = load ptr, ptr %34, align 8
  tail call void %35(ptr noundef nonnull align 8 dereferenceable(16) %22) #21
  br label %_ZNSt12__shared_ptrIN6open3d4core9TensorKey9IndexImplELN9__gnu_cxx12_Lock_policyE2EED2Ev.exit

36:                                               ; preds = %23
  %37 = load i8, ptr @__libc_single_threaded, align 1, !tbaa !13
  %.not.i.i.i = icmp eq i8 %37, 0
  br i1 %.not.i.i.i, label %40, label %38

38:                                               ; preds = %36
  %39 = add nsw i32 %27, -1
  store i32 %39, ptr %24, align 4, !tbaa !14
  br label %_ZN9__gnu_cxx27__exchange_and_add_dispatchEPii.exit.i.i.i

40:                                               ; preds = %36
  %41 = atomicrmw volatile add ptr %24, i32 -1 acq_rel, align 4
  br label %_ZN9__gnu_cxx27__exchange_and_add_dispatchEPii.exit.i.i.i

_ZN9__gnu_cxx27__exchange_and_add_dispatchEPii.exit.i.i.i: ; preds = %40, %38
  %.0.i.i.i.i = phi i32 [ %27, %38 ], [ %41, %40 ]
  %42 = icmp eq i32 %.0.i.i.i.i, 1
  br i1 %42, label %43, label %_ZNSt12__shared_ptrIN6open3d4core9TensorKey9IndexImplELN9__gnu_cxx12_Lock_policyE2EED2Ev.exit, !prof !33

43:                                               ; preds = %_ZN9__gnu_cxx27__exchange_and_add_dispatchEPii.exit.i.i.i
  tail call void @_ZNSt16_Sp_counted_baseILN9__gnu_cxx12_Lock_policyE2EE24_M_release_last_use_coldEv(ptr noundef nonnull align 8 dereferenceable(16) %22) #21
  br label %_ZNSt12__shared_ptrIN6open3d4core9TensorKey9IndexImplELN9__gnu_cxx12_Lock_policyE2EED2Ev.exit

_ZNSt12__shared_ptrIN6open3d4core9TensorKey9IndexImplELN9__gnu_cxx12_Lock_policyE2EED2Ev.exit: ; preds = %_ZSt20dynamic_pointer_castIN6open3d4core9TensorKey9IndexImplENS2_4ImplEESt10shared_ptrIT_ERKS5_IT0_E.exit.thread, %28, %_ZN9__gnu_cxx27__exchange_and_add_dispatchEPii.exit.i.i.i, %43
  call void @llvm.lifetime.end.p0(i64 16, ptr nonnull %2) #21
  ret i64 %20

44:                                               ; preds = %46
  %45 = landingpad { ptr, i32 }
          cleanup
  call void @_ZNSt12__shared_ptrIN6open3d4core9TensorKey9IndexImplELN9__gnu_cxx12_Lock_policyE2EED2Ev(ptr noundef nonnull align 8 dereferenceable(16) %2) #21
  call void @llvm.lifetime.end.p0(i64 16, ptr nonnull %2) #21
  resume { ptr, i32 } %45

46:                                               ; preds = %_ZSt20dynamic_pointer_castIN6open3d4core9TensorKey9IndexImplENS2_4ImplEESt10shared_ptrIT_ERKS5_IT0_E.exit.thread4, %_ZSt20dynamic_pointer_castIN6open3d4core9TensorKey9IndexImplENS2_4ImplEESt10shared_ptrIT_ERKS5_IT0_E.exit
  invoke void @_ZN6open3d7utility6Logger9LogError_IJEEEvPKciS4_S4_DpOT_(ptr noundef nonnull @.str.11, i32 noundef 151, ptr noundef nonnull @__PRETTY_FUNCTION__._ZNK6open3d4core9TensorKey8GetIndexEv, ptr noundef nonnull @.str.12) #24
          to label %47 unwind label %44

47:                                               ; preds = %46
  unreachable
}